target datalayout = "e-m:e-p270:32:32-p271:32:32-p272:64:64-i64:64-i128:128-f80:128-n8:16:32:64-S128"
target triple = "x86_64-pc-linux-gnu"

; Function Attrs: nounwind uwtable
define ptr @dt_util_path_get_dirname(ptr noundef %0) #0 {
  %2 = alloca ptr, align 8
  %3 = alloca ptr, align 8
  %4 = alloca i32, align 4
  store ptr %0, ptr %2, align 8, !tbaa !6
  call void @llvm.lifetime.start.p0(i64 8, ptr %3) #18
  %5 = load ptr, ptr %2, align 8, !tbaa !6
  %6 = call noalias ptr @g_path_get_dirname(ptr noundef %5)
  store ptr %6, ptr %3, align 8, !tbaa !6
  %7 = load ptr, ptr %3, align 8, !tbaa !6
  %8 = getelementptr inbounds i8, ptr %7, i64 0
  %9 = load i8, ptr %8, align 1, !tbaa !18
  %10 = icmp ne i8 %9, 0
  br i1 %10, label %11, label %29

11:                                               ; preds = %1
  call void @llvm.lifetime.start.p0(i64 4, ptr %4) #18
  %12 = load ptr, ptr %3, align 8, !tbaa !6
  %13 = call i64 @strlen(ptr noundef %12) #17
  %14 = sub i64 %13, 1
  %15 = trunc i64 %14 to i32
  store i32 %15, ptr %4, align 4, !tbaa !15
  %16 = load ptr, ptr %3, align 8, !tbaa !6
  %17 = load i32, ptr %4, align 4, !tbaa !15
  %18 = sext i32 %17 to i64
  %19 = getelementptr inbounds i8, ptr %16, i64 %18
  %20 = load i8, ptr %19, align 1, !tbaa !18
  %21 = sext i8 %20 to i32
  %22 = icmp eq i32 %21, 47
  br i1 %22, label %23, label %28

23:                                               ; preds = %11
  %24 = load ptr, ptr %3, align 8, !tbaa !6
  %25 = load i32, ptr %4, align 4, !tbaa !15
  %26 = sext i32 %25 to i64
  %27 = getelementptr inbounds i8, ptr %24, i64 %26
  store i8 0, ptr %27, align 1, !tbaa !18
  br label %28

28:                                               ; preds = %23, %11
  call void @llvm.lifetime.end.p0(i64 4, ptr %4) #18
  br label %29

29:                                               ; preds = %28, %1
  %30 = load ptr, ptr %3, align 8, !tbaa !6
  call void @llvm.lifetime.end.p0(i64 8, ptr %3) #18
  ret ptr %30
}