; Function Attrs: nounwind uwtable
define noalias noundef ptr @dt_util_path_get_dirname(ptr noundef %0) local_unnamed_addr #0 {
  %2 = tail call noalias ptr @g_path_get_dirname(ptr noundef %0) #27
  %3 = load i8, ptr %2, align 1, !tbaa !11
  %.not = icmp eq i8 %3, 0
  br i1 %.not, label %11, label %4

4:                                                ; preds = %1
  %5 = tail call i64 @strlen(ptr noundef nonnull dereferenceable(1) %2) #26
  %6 = shl i64 %5, 32
  %sext = add i64 %6, -4294967296
  %7 = ashr exact i64 %sext, 32
  %8 = getelementptr inbounds i8, ptr %2, i64 %7
  %9 = load i8, ptr %8, align 1, !tbaa !11
  %10 = icmp eq i8 %9, 47
  %spec.store.select = select i1 %10, i8 0, i8 %9
  store i8 %spec.store.select, ptr %8, align 1
  br label %11

11:                                               ; preds = %4, %1
  ret ptr %2
}